target datalayout = "e-m:e-p270:32:32-p271:32:32-p272:64:64-i64:64-i128:128-f80:128-n8:16:32:64-S128"
target triple = "x86_64-pc-linux-gnu"

%class.Lhs = type <{ %class.Expression, ptr, ptr, i8, [7 x i8] }>
%class.Expression = type { ptr, i32, i32, ptr }

; Function Attrs: mustprogress uwtable
define dso_local noundef zeroext i1 @_ZNK3Lhs10compatibleEPK10Expression(ptr noundef nonnull align 8 dereferenceable(41) %0, ptr noundef %1) unnamed_addr #4 align 2 {
  %3 = alloca ptr, align 8
  %4 = alloca ptr, align 8
  store ptr %0, ptr %3, align 8, !tbaa !99
  store ptr %1, ptr %4, align 8, !tbaa !112
  %5 = load ptr, ptr %3, align 8
  %6 = load ptr, ptr %4, align 8, !tbaa !112
  %7 = getelementptr inbounds nuw %class.Lhs, ptr %5, i32 0, i32 1
  %8 = load ptr, ptr %7, align 8, !tbaa !116
  %9 = load ptr, ptr %6, align 8, !tbaa !109
  %10 = getelementptr inbounds ptr, ptr %9, i64 21
  %11 = load ptr, ptr %10, align 8
  %12 = call noundef zeroext i1 %11(ptr noundef nonnull align 8 dereferenceable(24) %6, ptr noundef %8)
  ret i1 %12
}