; Function Attrs: mustprogress uwtable
define dso_local noundef zeroext i1 @_ZNK3Lhs10compatibleEPK10Expression(ptr noundef nonnull readonly align 8 captures(none) dereferenceable(41) %0, ptr noundef %1) unnamed_addr #3 align 2 {
  %3 = getelementptr inbounds nuw i8, ptr %0, i64 24
  %4 = load ptr, ptr %3, align 8, !tbaa !97
  %5 = load ptr, ptr %1, align 8, !tbaa !89
  %6 = getelementptr inbounds nuw i8, ptr %5, i64 168
  %7 = load ptr, ptr %6, align 8
  %8 = tail call noundef zeroext i1 %7(ptr noundef nonnull align 8 dereferenceable(24) %1, ptr noundef %4)
  ret i1 %8
}